(irun_all_species
SpeciesRunFilter
p0
(dp1
S'guenomu'
p2
I00
sS'mb_chains'
p3
I2
sS'verbose'
p4
I00
sS'astral_mp'
p5
(lp6
sS'mrbayes'
p7
I01
sS'phyldog'
p8
I00
sS'dicotree'
p9
I00
sS'mb_generations'
p10
I100000
sS'starting_gene_trees'
p11
S'raxml-ng'
p12
sS'mb_frequencies'
p13
I100
sS'speciesraxbench'
p14
(lp15
sS'genetegratorbench'
p16
(lp17
S'mrbayes-r1-c2-g100K-f100-braxml'
p18
asS'astrid_single'
p19
(lp20
sS'mb_burnin'
p21
S'raxml'
p22
sS'ale_dated'
p23
(lp24
sS'mb_runs'
p25
I1
sS'cherry'
p26
I00
sS'analyze'
p27
I01
sS'generate'
p28
I01
sS'fastmulrfs'
p29
I00
sS'fastrfs'
p30
I00
sS'asteroid'
p31
(lp32
sS'pargenes_bootstrap_trees'
p33
I0
sS'astralpro2'
p34
(lp35
g12
ag18
asS'njst'
p36
I00
sS'njrax'
p37
I00
sS'astral'
p38
(lp39
sS'analyze_gene_trees'
p40
I01
sS'minbl'
p41
F-1.0
sS'generax_undated'
p42
I00
sS'aster'
p43
(lp44
sS'speciesrax'
p45
(lp46
g12
asS'fasttree'
p47
I01
sS'stag'
p48
I00
sS'astralpro'
p49
(lp50
sS'concatenation_min'
p51
I00
sS'astrid'
p52
(lp53
sS'alegenerax_softdated'
p54
(lp55
sS'generax_softdated'
p56
I00
sS'ale_undated'
p57
(lp58
sS'stells'
p59
I00
sS'alegenerax_softdated_gamma'
p60
(lp61
sS'bootstrap_trees'
p62
I0
sS'alegenerax_undated'
p63
(lp64
sS'pargenes_starting_trees'
p65
I1
sS'grf_analyze'
p66
I00
sS'stride'
p67
I00
sS'pargenes'
p68
I01
sS'cherrypro'
p69
I00
sS'duptree'
p70
I00
sS'concatenation_max'
p71
I00
sS'cleanup'
p72
I00
sb.