(irun_all_species
SpeciesRunFilter
p0
(dp1
S'guenomu'
p2
I00
sS'analyze'
p3
I01
sS'mb_chains'
p4
I4
sS'verbose'
p5
I00
sS'astral_mp'
p6
(lp7
sS'mrbayes'
p8
I00
sS'phyldog'
p9
I00
sS'dicotree'
p10
I00
sS'mb_generations'
p11
I10000
sS'starting_gene_trees'
p12
S'raxml-ng'
p13
sS'mb_frequencies'
p14
I1000
sS'speciesraxbench'
p15
(lp16
sS'genetegratorbench'
p17
(lp18
sS'astrid_single'
p19
(lp20
sS'mb_burnin'
p21
I1
sS'ale_dated'
p22
(lp23
sS'mb_runs'
p24
I1
sS'cherry'
p25
I00
sS'plausiblerax'
p26
I00
sS'ufboot'
p27
(lp28
sS'generate'
p29
I00
sS'fastmulrfs'
p30
I00
sS'fastrfs'
p31
I00
sS'asteroid'
p32
(lp33
sS'pargenes_bootstrap_trees'
p34
I0
sS'astralpro2'
p35
(lp36
sS'njst'
p37
I00
sS'njrax'
p38
I00
sS'astral'
p39
(lp40
sS'analyze_gene_trees'
p41
I00
sS'minbl'
p42
F-1.0
sS'generax_undated'
p43
I00
sS'aster'
p44
(lp45
sS'speciesrax'
p46
(lp47
sS'fasttree'
p48
I00
sS'stag'
p49
I00
sS'astralpro'
p50
(lp51
sS'concatenation_min'
p52
I00
sS'astrid'
p53
(lp54
sS'alegenerax_softdated'
p55
(lp56
sS'generax_softdated'
p57
I00
sS'ale_undated'
p58
(lp59
sS'stells'
p60
I00
sS'alegenerax_softdated_gamma'
p61
(lp62
sS'bootstrap_trees'
p63
I0
sS'alegenerax_undated'
p64
(lp65
sS'pargenes_starting_trees'
p66
I1
sS'grf_analyze'
p67
I00
sS'alegenerax_undated_ll'
p68
(lp69
sS'stride'
p70
I00
sS'pargenes'
p71
I00
sS'cherrypro'
p72
I00
sS'duptree'
p73
I00
sS'concatenation_max'
p74
I00
sS'cleanup'
p75
I00
sb.