(dp0
S'family_058'
p1
(dp2
S'true.true - raxml-ng.GTR+G'
p3
(lp4
F10.0
aF40.0
asS'true.true - alegenerax-tcnone-fam-orunif_raxml-ng.GTR+G'
p5
(lp6
F10.0
aF40.0
asS'true.true - ale-dtl-mrbayes-r1-c2-g100K-f100-braxml.GTR+G'
p7
(lp8
F9.42
aF40.0
asS'true.true - true.true'
p9
(lp10
F0.0
aF40.0
asS'true.true - alegenerax-tcnone-orunif_mrbayes-r1-c2-g100K-f100-braxml.GTR+G'
p11
(lp12
F14.0
aF40.0
asS'true.true - generax-SPR-UndatedDTL-r5.GTR+G'
p13
(lp14
F8.0
aF40.0
asS'true.true - fasttree.GTR+G'
p15
(lp16
F12.0
aF40.0
asS'true.true - alegenerax-tcnone-fam-orunif_mrbayes-r1-c2-g100K-f100-braxml.GTR+G'
p17
(lp18
F14.0
aF40.0
asS'true.true - alegenerax-tcnone-orunif_raxml-ng.GTR+G'
p19
(lp20
F10.0
aF40.0
asS'true.true - ale-dtl-raxml-ng.GTR+G'
p21
(lp22
F10.0
aF40.0
assS'family_059'
p23
(dp24
g3
(lp25
F4.0
aF10.0
asg5
(lp26
F4.0
aF10.0
asg7
(lp27
F1.04
aF10.0
asg9
(lp28
F0.0
aF10.0
asg11
(lp29
F2.0
aF10.0
asg13
(lp30
F0.0
aF10.0
asg15
(lp31
F2.0
aF10.0
asg17
(lp32
F0.0
aF10.0
asg19
(lp33
F4.0
aF10.0
asg21
(lp34
F4.0
aF10.0
assS'family_054'
p35
(dp36
g3
(lp37
F20.0
aF90.0
asg5
(lp38
F20.0
aF90.0
asg7
(lp39
F13.92
aF90.0
asg9
(lp40
F0.0
aF90.0
asg11
(lp41
F16.0
aF90.0
asg13
(lp42
F16.0
aF90.0
asg15
(lp43
F20.0
aF90.0
asg17
(lp44
F14.0
aF90.0
asg19
(lp45
F20.0
aF90.0
asg21
(lp46
F20.0
aF90.0
assS'family_055'
p47
(dp48
g3
(lp49
F12.0
aF46.0
asg5
(lp50
F12.0
aF46.0
asg7
(lp51
F10.02
aF46.0
asg9
(lp52
F0.0
aF46.0
asg11
(lp53
F14.0
aF46.0
asg13
(lp54
F12.0
aF46.0
asg15
(lp55
F8.0
aF46.0
asg17
(lp56
F12.0
aF46.0
asg19
(lp57
F12.0
aF46.0
asg21
(lp58
F12.0
aF46.0
assS'family_056'
p59
(dp60
g3
(lp61
F16.0
aF68.0
asg5
(lp62
F16.0
aF68.0
asg7
(lp63
F15.84
aF68.0
asg9
(lp64
F0.0
aF68.0
asg11
(lp65
F16.0
aF68.0
asg13
(lp66
F10.0
aF68.0
asg15
(lp67
F14.0
aF68.0
asg17
(lp68
F16.0
aF68.0
asg19
(lp69
F16.0
aF68.0
asg21
(lp70
F16.0
aF68.0
assS'family_057'
p71
(dp72
g3
(lp73
F14.0
aF28.0
asg5
(lp74
F14.0
aF28.0
asg7
(lp75
F11.48
aF28.0
asg9
(lp76
F0.0
aF28.0
asg11
(lp77
F14.0
aF28.0
asg13
(lp78
F14.0
aF28.0
asg15
(lp79
F14.0
aF28.0
asg17
(lp80
F16.0
aF28.0
asg19
(lp81
F14.0
aF28.0
asg21
(lp82
F14.0
aF28.0
assS'family_050'
p83
(dp84
g3
(lp85
F22.0
aF44.0
asg5
(lp86
F22.0
aF44.0
asg7
(lp87
F21.4
aF44.0
asg9
(lp88
F0.0
aF44.0
asg11
(lp89
F16.0
aF44.0
asg13
(lp90
F18.0
aF44.0
asg15
(lp91
F20.0
aF44.0
asg17
(lp92
F18.0
aF44.0
asg19
(lp93
F22.0
aF44.0
asg21
(lp94
F22.0
aF44.0
assS'family_051'
p95
(dp96
g3
(lp97
F16.0
aF42.0
asg5
(lp98
F16.0
aF42.0
asg7
(lp99
F9.36
aF42.0
asg9
(lp100
F0.0
aF42.0
asg11
(lp101
F10.0
aF42.0
asg13
(lp102
F12.0
aF42.0
asg15
(lp103
F14.0
aF42.0
asg17
(lp104
F8.0
aF42.0
asg19
(lp105
F16.0
aF42.0
asg21
(lp106
F16.0
aF42.0
assS'family_052'
p107
(dp108
g3
(lp109
F8.0
aF32.0
asg5
(lp110
F8.0
aF32.0
asg7
(lp111
F6.22
aF32.0
asg9
(lp112
F0.0
aF32.0
asg11
(lp113
F4.0
aF32.0
asg13
(lp114
F10.0
aF32.0
asg15
(lp115
F8.0
aF32.0
asg17
(lp116
F2.0
aF32.0
asg19
(lp117
F8.0
aF32.0
asg21
(lp118
F8.0
aF32.0
assS'family_053'
p119
(dp120
g3
(lp121
F18.0
aF32.0
asg5
(lp122
F18.0
aF32.0
asg7
(lp123
F12.68
aF32.0
asg9
(lp124
F0.0
aF32.0
asg11
(lp125
F8.0
aF32.0
asg13
(lp126
F10.0
aF32.0
asg15
(lp127
F14.0
aF32.0
asg17
(lp128
F8.0
aF32.0
asg19
(lp129
F18.0
aF32.0
asg21
(lp130
F18.0
aF32.0
assS'family_043'
p131
(dp132
g3
(lp133
F0.0
aF6.0
asg5
(lp134
F0.0
aF6.0
asg7
(lp135
F1.08
aF6.0
asg9
(lp136
F0.0
aF6.0
asg11
(lp137
F0.0
aF6.0
asg13
(lp138
F0.0
aF6.0
asg15
(lp139
F0.0
aF6.0
asg17
(lp140
F2.0
aF6.0
asg19
(lp141
F0.0
aF6.0
asg21
(lp142
F0.0
aF6.0
assS'family_042'
p143
(dp144
g3
(lp145
F8.0
aF12.0
asg5
(lp146
F8.0
aF12.0
asg7
(lp147
F2.26
aF12.0
asg9
(lp148
F0.0
aF12.0
asg11
(lp149
F2.0
aF12.0
asg13
(lp150
F2.0
aF12.0
asg15
(lp151
F8.0
aF12.0
asg17
(lp152
F2.0
aF12.0
asg19
(lp153
F8.0
aF12.0
asg21
(lp154
F8.0
aF12.0
assS'family_041'
p155
(dp156
g3
(lp157
F0.0
aF6.0
asg5
(lp158
F0.0
aF6.0
asg7
(lp159
F0.0
aF6.0
asg9
(lp160
F0.0
aF6.0
asg11
(lp161
F0.0
aF6.0
asg13
(lp162
F0.0
aF6.0
asg15
(lp163
F0.0
aF6.0
asg17
(lp164
F0.0
aF6.0
asg19
(lp165
F0.0
aF6.0
asg21
(lp166
F0.0
aF6.0
assS'family_040'
p167
(dp168
g3
(lp169
F2.0
aF8.0
asg5
(lp170
F2.0
aF8.0
asg7
(lp171
F0.0
aF8.0
asg9
(lp172
F0.0
aF8.0
asg11
(lp173
F0.0
aF8.0
asg13
(lp174
F0.0
aF8.0
asg15
(lp175
F2.0
aF8.0
asg17
(lp176
F0.0
aF8.0
asg19
(lp177
F2.0
aF8.0
asg21
(lp178
F2.0
aF8.0
assS'family_047'
p179
(dp180
g3
(lp181
F12.0
aF32.0
asg5
(lp182
F12.0
aF32.0
asg7
(lp183
F3.48
aF32.0
asg9
(lp184
F0.0
aF32.0
asg11
(lp185
F2.0
aF32.0
asg13
(lp186
F2.0
aF32.0
asg15
(lp187
F8.0
aF32.0
asg17
(lp188
F2.0
aF32.0
asg19
(lp189
F12.0
aF32.0
asg21
(lp190
F12.0
aF32.0
assS'family_046'
p191
(dp192
g3
(lp193
F2.0
aF10.0
asg5
(lp194
F2.0
aF10.0
asg7
(lp195
F0.26
aF10.0
asg9
(lp196
F0.0
aF10.0
asg11
(lp197
F0.0
aF10.0
asg13
(lp198
F6.0
aF10.0
asg15
(lp199
F2.0
aF10.0
asg17
(lp200
F0.0
aF10.0
asg19
(lp201
F2.0
aF10.0
asg21
(lp202
F2.0
aF10.0
assS'family_045'
p203
(dp204
g3
(lp205
F2.0
aF18.0
asg5
(lp206
F2.0
aF18.0
asg7
(lp207
F4.16
aF18.0
asg9
(lp208
F0.0
aF18.0
asg11
(lp209
F6.0
aF18.0
asg13
(lp210
F2.0
aF18.0
asg15
(lp211
F2.0
aF18.0
asg17
(lp212
F6.0
aF18.0
asg19
(lp213
F2.0
aF18.0
asg21
(lp214
F2.0
aF18.0
assS'family_044'
p215
(dp216
g3
(lp217
F6.0
aF30.0
asg5
(lp218
F6.0
aF30.0
asg7
(lp219
F8.64
aF30.0
asg9
(lp220
F0.0
aF30.0
asg11
(lp221
F8.0
aF30.0
asg13
(lp222
F4.0
aF30.0
asg15
(lp223
F6.0
aF30.0
asg17
(lp224
F12.0
aF30.0
asg19
(lp225
F6.0
aF30.0
asg21
(lp226
F6.0
aF30.0
assS'family_049'
p227
(dp228
g3
(lp229
F6.0
aF42.0
asg5
(lp230
F6.0
aF42.0
asg7
(lp231
F6.64
aF42.0
asg9
(lp232
F0.0
aF42.0
asg11
(lp233
F2.0
aF42.0
asg13
(lp234
F10.0
aF42.0
asg15
(lp235
F8.0
aF42.0
asg17
(lp236
F2.0
aF42.0
asg19
(lp237
F6.0
aF42.0
asg21
(lp238
F6.0
aF42.0
assS'family_036'
p239
(dp240
g3
(lp241
F14.0
aF72.0
asg5
(lp242
F14.0
aF72.0
asg7
(lp243
F15.34
aF72.0
asg9
(lp244
F0.0
aF72.0
asg11
(lp245
F16.0
aF72.0
asg13
(lp246
F14.0
aF72.0
asg15
(lp247
F18.0
aF72.0
asg17
(lp248
F14.0
aF72.0
asg19
(lp249
F14.0
aF72.0
asg21
(lp250
F14.0
aF72.0
assS'family_037'
p251
(dp252
g3
(lp253
F6.0
aF16.0
asg5
(lp254
F6.0
aF16.0
asg7
(lp255
F6.86
aF16.0
asg9
(lp256
F0.0
aF16.0
asg11
(lp257
F2.0
aF16.0
asg13
(lp258
F0.0
aF16.0
asg15
(lp259
F4.0
aF16.0
asg17
(lp260
F0.0
aF16.0
asg19
(lp261
F6.0
aF16.0
asg21
(lp262
F6.0
aF16.0
assS'family_035'
p263
(dp264
g3
(lp265
F30.0
aF58.0
asg5
(lp266
F30.0
aF58.0
asg7
(lp267
F30.52
aF58.0
asg9
(lp268
F0.0
aF58.0
asg11
(lp269
F30.0
aF58.0
asg13
(lp270
F28.0
aF58.0
asg15
(lp271
F26.0
aF58.0
asg17
(lp272
F28.0
aF58.0
asg19
(lp273
F30.0
aF58.0
asg21
(lp274
F30.0
aF58.0
assS'family_032'
p275
(dp276
g3
(lp277
F0.0
aF2.0
asg5
(lp278
F0.0
aF2.0
asg7
(lp279
F0.0
aF2.0
asg9
(lp280
F0.0
aF2.0
asg11
(lp281
F0.0
aF2.0
asg13
(lp282
F0.0
aF2.0
asg15
(lp283
F0.0
aF2.0
asg17
(lp284
F0.0
aF2.0
asg19
(lp285
F0.0
aF2.0
asg21
(lp286
F0.0
aF2.0
assS'family_033'
p287
(dp288
g3
(lp289
F8.0
aF30.0
asg5
(lp290
F8.0
aF30.0
asg7
(lp291
F2.4
aF30.0
asg9
(lp292
F0.0
aF30.0
asg11
(lp293
F2.0
aF30.0
asg13
(lp294
F6.0
aF30.0
asg15
(lp295
F8.0
aF30.0
asg17
(lp296
F2.0
aF30.0
asg19
(lp297
F8.0
aF30.0
asg21
(lp298
F8.0
aF30.0
assS'family_030'
p299
(dp300
g3
(lp301
F10.0
aF36.0
asg5
(lp302
F10.0
aF36.0
asg7
(lp303
F10.44
aF36.0
asg9
(lp304
F0.0
aF36.0
asg11
(lp305
F12.0
aF36.0
asg13
(lp306
F10.0
aF36.0
asg15
(lp307
F14.0
aF36.0
asg17
(lp308
F12.0
aF36.0
asg19
(lp309
F10.0
aF36.0
asg21
(lp310
F10.0
aF36.0
assS'family_031'
p311
(dp312
g3
(lp313
F8.0
aF14.0
asg5
(lp314
F8.0
aF14.0
asg7
(lp315
F0.0
aF14.0
asg9
(lp316
F0.0
aF14.0
asg11
(lp317
F0.0
aF14.0
asg13
(lp318
F0.0
aF14.0
asg15
(lp319
F8.0
aF14.0
asg17
(lp320
F0.0
aF14.0
asg19
(lp321
F8.0
aF14.0
asg21
(lp322
F8.0
aF14.0
assS'family_038'
p323
(dp324
g3
(lp325
F0.0
aF6.0
asg5
(lp326
F0.0
aF6.0
asg7
(lp327
F0.04
aF6.0
asg9
(lp328
F0.0
aF6.0
asg11
(lp329
F0.0
aF6.0
asg13
(lp330
F0.0
aF6.0
asg15
(lp331
F0.0
aF6.0
asg17
(lp332
F0.0
aF6.0
asg19
(lp333
F0.0
aF6.0
asg21
(lp334
F0.0
aF6.0
assS'family_039'
p335
(dp336
g3
(lp337
F14.0
aF42.0
asg5
(lp338
F14.0
aF42.0
asg7
(lp339
F9.56
aF42.0
asg9
(lp340
F0.0
aF42.0
asg11
(lp341
F6.0
aF42.0
asg13
(lp342
F6.0
aF42.0
asg15
(lp343
F10.0
aF42.0
asg17
(lp344
F10.0
aF42.0
asg19
(lp345
F14.0
aF42.0
asg21
(lp346
F14.0
aF42.0
assS'family_025'
p347
(dp348
g3
(lp349
F18.0
aF34.0
asg5
(lp350
F18.0
aF34.0
asg7
(lp351
F0.7
aF34.0
asg9
(lp352
F0.0
aF34.0
asg11
(lp353
F0.0
aF34.0
asg13
(lp354
F0.0
aF34.0
asg15
(lp355
F12.0
aF34.0
asg17
(lp356
F0.0
aF34.0
asg19
(lp357
F18.0
aF34.0
asg21
(lp358
F18.0
aF34.0
assS'family_024'
p359
(dp360
g3
(lp361
F4.0
aF28.0
asg5
(lp362
F4.0
aF28.0
asg7
(lp363
F5.2
aF28.0
asg9
(lp364
F0.0
aF28.0
asg11
(lp365
F8.0
aF28.0
asg13
(lp366
F4.0
aF28.0
asg15
(lp367
F4.0
aF28.0
asg17
(lp368
F8.0
aF28.0
asg19
(lp369
F4.0
aF28.0
asg21
(lp370
F4.0
aF28.0
assS'family_027'
p371
(dp372
g3
(lp373
F2.0
aF16.0
asg5
(lp374
F2.0
aF16.0
asg7
(lp375
F0.26
aF16.0
asg9
(lp376
F0.0
aF16.0
asg11
(lp377
F0.0
aF16.0
asg13
(lp378
F0.0
aF16.0
asg15
(lp379
F2.0
aF16.0
asg17
(lp380
F0.0
aF16.0
asg19
(lp381
F2.0
aF16.0
asg21
(lp382
F2.0
aF16.0
assS'family_026'
p383
(dp384
g3
(lp385
F4.0
aF20.0
asg5
(lp386
F4.0
aF20.0
asg7
(lp387
F1.9
aF20.0
asg9
(lp388
F0.0
aF20.0
asg11
(lp389
F2.0
aF20.0
asg13
(lp390
F2.0
aF20.0
asg15
(lp391
F4.0
aF20.0
asg17
(lp392
F2.0
aF20.0
asg19
(lp393
F4.0
aF20.0
asg21
(lp394
F4.0
aF20.0
assS'family_021'
p395
(dp396
g3
(lp397
F8.0
aF22.0
asg5
(lp398
F8.0
aF22.0
asg7
(lp399
F5.26
aF22.0
asg9
(lp400
F0.0
aF22.0
asg11
(lp401
F8.0
aF22.0
asg13
(lp402
F10.0
aF22.0
asg15
(lp403
F4.0
aF22.0
asg17
(lp404
F6.0
aF22.0
asg19
(lp405
F8.0
aF22.0
asg21
(lp406
F8.0
aF22.0
assS'family_020'
p407
(dp408
g3
(lp409
F16.0
aF38.0
asg5
(lp410
F16.0
aF38.0
asg7
(lp411
F13.1
aF38.0
asg9
(lp412
F0.0
aF38.0
asg11
(lp413
F2.0
aF38.0
asg13
(lp414
F8.0
aF38.0
asg15
(lp415
F16.0
aF38.0
asg17
(lp416
F4.0
aF38.0
asg19
(lp417
F16.0
aF38.0
asg21
(lp418
F16.0
aF38.0
assS'family_023'
p419
(dp420
g3
(lp421
F32.0
aF36.0
asg5
(lp422
F32.0
aF36.0
asg7
(lp423
F26.24
aF36.0
asg9
(lp424
F0.0
aF36.0
asg11
(lp425
F22.0
aF36.0
asg13
(lp426
F32.0
aF36.0
asg15
(lp427
F32.0
aF36.0
asg17
(lp428
F24.0
aF36.0
asg19
(lp429
F32.0
aF36.0
asg21
(lp430
F32.0
aF36.0
assS'family_022'
p431
(dp432
g3
(lp433
F0.0
aF4.0
asg5
(lp434
F0.0
aF4.0
asg7
(lp435
F0.0
aF4.0
asg9
(lp436
F0.0
aF4.0
asg11
(lp437
F0.0
aF4.0
asg13
(lp438
F0.0
aF4.0
asg15
(lp439
F0.0
aF4.0
asg17
(lp440
F0.0
aF4.0
asg19
(lp441
F0.0
aF4.0
asg21
(lp442
F0.0
aF4.0
assS'family_029'
p443
(dp444
g3
(lp445
F6.0
aF14.0
asg5
(lp446
F6.0
aF14.0
asg7
(lp447
F1.28
aF14.0
asg9
(lp448
F0.0
aF14.0
asg11
(lp449
F0.0
aF14.0
asg13
(lp450
F4.0
aF14.0
asg15
(lp451
F6.0
aF14.0
asg17
(lp452
F0.0
aF14.0
asg19
(lp453
F6.0
aF14.0
asg21
(lp454
F6.0
aF14.0
assS'family_028'
p455
(dp456
g3
(lp457
F38.0
aF52.0
asg5
(lp458
F38.0
aF52.0
asg7
(lp459
F28.8
aF52.0
asg9
(lp460
F0.0
aF52.0
asg11
(lp461
F26.0
aF52.0
asg13
(lp462
F28.0
aF52.0
asg15
(lp463
F32.0
aF52.0
asg17
(lp464
F26.0
aF52.0
asg19
(lp465
F38.0
aF52.0
asg21
(lp466
F38.0
aF52.0
assS'family_090'
p467
(dp468
g3
(lp469
F10.0
aF26.0
asg5
(lp470
F10.0
aF26.0
asg7
(lp471
F4.54
aF26.0
asg9
(lp472
F0.0
aF26.0
asg11
(lp473
F2.0
aF26.0
asg13
(lp474
F4.0
aF26.0
asg15
(lp475
F10.0
aF26.0
asg17
(lp476
F2.0
aF26.0
asg19
(lp477
F10.0
aF26.0
asg21
(lp478
F10.0
aF26.0
assS'family_091'
p479
(dp480
g3
(lp481
F10.0
aF24.0
asg5
(lp482
F10.0
aF24.0
asg7
(lp483
F5.22
aF24.0
asg9
(lp484
F0.0
aF24.0
asg11
(lp485
F6.0
aF24.0
asg13
(lp486
F8.0
aF24.0
asg15
(lp487
F8.0
aF24.0
asg17
(lp488
F4.0
aF24.0
asg19
(lp489
F10.0
aF24.0
asg21
(lp490
F10.0
aF24.0
assS'family_092'
p491
(dp492
g3
(lp493
F2.0
aF6.0
asg5
(lp494
F2.0
aF6.0
asg7
(lp495
F0.36
aF6.0
asg9
(lp496
F0.0
aF6.0
asg11
(lp497
F2.0
aF6.0
asg13
(lp498
F0.0
aF6.0
asg15
(lp499
F2.0
aF6.0
asg17
(lp500
F0.0
aF6.0
asg19
(lp501
F2.0
aF6.0
asg21
(lp502
F2.0
aF6.0
assS'family_093'
p503
(dp504
g3
(lp505
F22.0
aF50.0
asg5
(lp506
F22.0
aF50.0
asg7
(lp507
F21.76
aF50.0
asg9
(lp508
F0.0
aF50.0
asg11
(lp509
F20.0
aF50.0
asg13
(lp510
F16.0
aF50.0
asg15
(lp511
F16.0
aF50.0
asg17
(lp512
F16.0
aF50.0
asg19
(lp513
F22.0
aF50.0
asg21
(lp514
F22.0
aF50.0
assS'family_094'
p515
(dp516
g3
(lp517
F12.0
aF30.0
asg5
(lp518
F12.0
aF30.0
asg7
(lp519
F8.78
aF30.0
asg9
(lp520
F0.0
aF30.0
asg11
(lp521
F6.0
aF30.0
asg13
(lp522
F4.0
aF30.0
asg15
(lp523
F12.0
aF30.0
asg17
(lp524
F8.0
aF30.0
asg19
(lp525
F12.0
aF30.0
asg21
(lp526
F12.0
aF30.0
assS'family_095'
p527
(dp528
g3
(lp529
F4.0
aF28.0
asg5
(lp530
F4.0
aF28.0
asg7
(lp531
F4.2
aF28.0
asg9
(lp532
F0.0
aF28.0
asg11
(lp533
F4.0
aF28.0
asg13
(lp534
F2.0
aF28.0
asg15
(lp535
F2.0
aF28.0
asg17
(lp536
F8.0
aF28.0
asg19
(lp537
F4.0
aF28.0
asg21
(lp538
F4.0
aF28.0
assS'family_096'
p539
(dp540
g3
(lp541
F12.0
aF20.0
asg5
(lp542
F12.0
aF20.0
asg7
(lp543
F0.0
aF20.0
asg9
(lp544
F0.0
aF20.0
asg11
(lp545
F0.0
aF20.0
asg13
(lp546
F0.0
aF20.0
asg15
(lp547
F10.0
aF20.0
asg17
(lp548
F0.0
aF20.0
asg19
(lp549
F12.0
aF20.0
asg21
(lp550
F12.0
aF20.0
assS'family_097'
p551
(dp552
g3
(lp553
F10.0
aF24.0
asg5
(lp554
F10.0
aF24.0
asg7
(lp555
F3.46
aF24.0
asg9
(lp556
F0.0
aF24.0
asg11
(lp557
F4.0
aF24.0
asg13
(lp558
F2.0
aF24.0
asg15
(lp559
F10.0
aF24.0
asg17
(lp560
F2.0
aF24.0
asg19
(lp561
F10.0
aF24.0
asg21
(lp562
F10.0
aF24.0
assS'family_098'
p563
(dp564
g3
(lp565
F0.0
aF6.0
asg5
(lp566
F0.0
aF6.0
asg7
(lp567
F2.92
aF6.0
asg9
(lp568
F0.0
aF6.0
asg11
(lp569
F4.0
aF6.0
asg13
(lp570
F2.0
aF6.0
asg15
(lp571
F0.0
aF6.0
asg17
(lp572
F2.0
aF6.0
asg19
(lp573
F0.0
aF6.0
asg21
(lp574
F0.0
aF6.0
assS'family_099'
p575
(dp576
g3
(lp577
F6.0
aF18.0
asg5
(lp578
F6.0
aF18.0
asg7
(lp579
F6.8
aF18.0
asg9
(lp580
F0.0
aF18.0
asg11
(lp581
F10.0
aF18.0
asg13
(lp582
F4.0
aF18.0
asg15
(lp583
F10.0
aF18.0
asg17
(lp584
F8.0
aF18.0
asg19
(lp585
F6.0
aF18.0
asg21
(lp586
F6.0
aF18.0
assS'family_018'
p587
(dp588
g3
(lp589
F6.0
aF32.0
asg5
(lp590
F6.0
aF32.0
asg7
(lp591
F2.0
aF32.0
asg9
(lp592
F0.0
aF32.0
asg11
(lp593
F2.0
aF32.0
asg13
(lp594
F2.0
aF32.0
asg15
(lp595
F8.0
aF32.0
asg17
(lp596
F2.0
aF32.0
asg19
(lp597
F6.0
aF32.0
asg21
(lp598
F6.0
aF32.0
assS'family_019'
p599
(dp600
g3
(lp601
F24.0
aF70.0
asg5
(lp602
F24.0
aF70.0
asg7
(lp603
F20.2
aF70.0
asg9
(lp604
F0.0
aF70.0
asg11
(lp605
F16.0
aF70.0
asg13
(lp606
F24.0
aF70.0
asg15
(lp607
F34.0
aF70.0
asg17
(lp608
F18.0
aF70.0
asg19
(lp609
F24.0
aF70.0
asg21
(lp610
F24.0
aF70.0
assS'family_010'
p611
(dp612
g3
(lp613
F10.0
aF24.0
asg5
(lp614
F10.0
aF24.0
asg7
(lp615
F4.18
aF24.0
asg9
(lp616
F0.0
aF24.0
asg11
(lp617
F2.0
aF24.0
asg13
(lp618
F2.0
aF24.0
asg15
(lp619
F8.0
aF24.0
asg17
(lp620
F8.0
aF24.0
asg19
(lp621
F10.0
aF24.0
asg21
(lp622
F10.0
aF24.0
assS'family_011'
p623
(dp624
g3
(lp625
F18.0
aF70.0
asg5
(lp626
F18.0
aF70.0
asg7
(lp627
F13.06
aF70.0
asg9
(lp628
F0.0
aF70.0
asg11
(lp629
F12.0
aF70.0
asg13
(lp630
F12.0
aF70.0
asg15
(lp631
F20.0
aF70.0
asg17
(lp632
F14.0
aF70.0
asg19
(lp633
F18.0
aF70.0
asg21
(lp634
F18.0
aF70.0
assS'family_012'
p635
(dp636
g3
(lp637
F4.0
aF10.0
asg5
(lp638
F4.0
aF10.0
asg7
(lp639
F3.94
aF10.0
asg9
(lp640
F0.0
aF10.0
asg11
(lp641
F4.0
aF10.0
asg13
(lp642
F2.0
aF10.0
asg15
(lp643
F4.0
aF10.0
asg17
(lp644
F4.0
aF10.0
asg19
(lp645
F4.0
aF10.0
asg21
(lp646
F4.0
aF10.0
assS'family_013'
p647
(dp648
g3
(lp649
F12.0
aF18.0
asg5
(lp650
F12.0
aF18.0
asg7
(lp651
F8.26
aF18.0
asg9
(lp652
F0.0
aF18.0
asg11
(lp653
F4.0
aF18.0
asg13
(lp654
F8.0
aF18.0
asg15
(lp655
F8.0
aF18.0
asg17
(lp656
F8.0
aF18.0
asg19
(lp657
F12.0
aF18.0
asg21
(lp658
F12.0
aF18.0
assS'family_014'
p659
(dp660
g3
(lp661
F2.0
aF18.0
asg5
(lp662
F2.0
aF18.0
asg7
(lp663
F0.82
aF18.0
asg9
(lp664
F0.0
aF18.0
asg11
(lp665
F0.0
aF18.0
asg13
(lp666
F0.0
aF18.0
asg15
(lp667
F2.0
aF18.0
asg17
(lp668
F0.0
aF18.0
asg19
(lp669
F2.0
aF18.0
asg21
(lp670
F2.0
aF18.0
assS'family_015'
p671
(dp672
g3
(lp673
F16.0
aF52.0
asg5
(lp674
F16.0
aF52.0
asg7
(lp675
F8.22
aF52.0
asg9
(lp676
F0.0
aF52.0
asg11
(lp677
F6.0
aF52.0
asg13
(lp678
F0.0
aF52.0
asg15
(lp679
F20.0
aF52.0
asg17
(lp680
F0.0
aF52.0
asg19
(lp681
F16.0
aF52.0
asg21
(lp682
F16.0
aF52.0
assS'family_016'
p683
(dp684
g3
(lp685
F6.0
aF14.0
asg5
(lp686
F6.0
aF14.0
asg7
(lp687
F6.4
aF14.0
asg9
(lp688
F0.0
aF14.0
asg11
(lp689
F8.0
aF14.0
asg13
(lp690
F6.0
aF14.0
asg15
(lp691
F6.0
aF14.0
asg17
(lp692
F8.0
aF14.0
asg19
(lp693
F6.0
aF14.0
asg21
(lp694
F6.0
aF14.0
assS'family_017'
p695
(dp696
g3
(lp697
F0.0
aF26.0
asg5
(lp698
F0.0
aF26.0
asg7
(lp699
F2.06
aF26.0
asg9
(lp700
F0.0
aF26.0
asg11
(lp701
F2.0
aF26.0
asg13
(lp702
F2.0
aF26.0
asg15
(lp703
F0.0
aF26.0
asg17
(lp704
F2.0
aF26.0
asg19
(lp705
F0.0
aF26.0
asg21
(lp706
F0.0
aF26.0
assS'family_087'
p707
(dp708
g3
(lp709
F0.0
aF8.0
asg5
(lp710
F0.0
aF8.0
asg7
(lp711
F0.64
aF8.0
asg9
(lp712
F0.0
aF8.0
asg11
(lp713
F0.0
aF8.0
asg13
(lp714
F0.0
aF8.0
asg15
(lp715
F0.0
aF8.0
asg17
(lp716
F0.0
aF8.0
asg19
(lp717
F0.0
aF8.0
asg21
(lp718
F0.0
aF8.0
assS'family_086'
p719
(dp720
g3
(lp721
F2.0
aF10.0
asg5
(lp722
F2.0
aF10.0
asg7
(lp723
F2.2
aF10.0
asg9
(lp724
F0.0
aF10.0
asg11
(lp725
F4.0
aF10.0
asg13
(lp726
F4.0
aF10.0
asg15
(lp727
F4.0
aF10.0
asg17
(lp728
F0.0
aF10.0
asg19
(lp729
F2.0
aF10.0
asg21
(lp730
F2.0
aF10.0
assS'family_085'
p731
(dp732
g3
(lp733
F12.0
aF22.0
asg5
(lp734
F12.0
aF22.0
asg7
(lp735
F10.36
aF22.0
asg9
(lp736
F0.0
aF22.0
asg11
(lp737
F12.0
aF22.0
asg13
(lp738
F12.0
aF22.0
asg15
(lp739
F14.0
aF22.0
asg17
(lp740
F8.0
aF22.0
asg19
(lp741
F12.0
aF22.0
asg21
(lp742
F12.0
aF22.0
assS'family_084'
p743
(dp744
g3
(lp745
F0.0
aF2.0
asg5
(lp746
F0.0
aF2.0
asg7
(lp747
F0.0
aF2.0
asg9
(lp748
F0.0
aF2.0
asg11
(lp749
F0.0
aF2.0
asg13
(lp750
F0.0
aF2.0
asg15
(lp751
F0.0
aF2.0
asg17
(lp752
F0.0
aF2.0
asg19
(lp753
F0.0
aF2.0
asg21
(lp754
F0.0
aF2.0
assS'family_083'
p755
(dp756
g3
(lp757
F8.0
aF32.0
asg5
(lp758
F8.0
aF32.0
asg7
(lp759
F2.74
aF32.0
asg9
(lp760
F0.0
aF32.0
asg11
(lp761
F2.0
aF32.0
asg13
(lp762
F4.0
aF32.0
asg15
(lp763
F4.0
aF32.0
asg17
(lp764
F4.0
aF32.0
asg19
(lp765
F8.0
aF32.0
asg21
(lp766
F8.0
aF32.0
assS'family_082'
p767
(dp768
g3
(lp769
F10.0
aF24.0
asg5
(lp770
F10.0
aF24.0
asg7
(lp771
F0.0
aF24.0
asg9
(lp772
F0.0
aF24.0
asg11
(lp773
F0.0
aF24.0
asg13
(lp774
F0.0
aF24.0
asg15
(lp775
F6.0
aF24.0
asg17
(lp776
F0.0
aF24.0
asg19
(lp777
F10.0
aF24.0
asg21
(lp778
F10.0
aF24.0
assS'family_081'
p779
(dp780
g3
(lp781
F0.0
aF2.0
asg5
(lp782
F0.0
aF2.0
asg7
(lp783
F0.0
aF2.0
asg9
(lp784
F0.0
aF2.0
asg11
(lp785
F0.0
aF2.0
asg13
(lp786
F0.0
aF2.0
asg15
(lp787
F0.0
aF2.0
asg17
(lp788
F0.0
aF2.0
asg19
(lp789
F0.0
aF2.0
asg21
(lp790
F0.0
aF2.0
assS'family_080'
p791
(dp792
g3
(lp793
F32.0
aF58.0
asg5
(lp794
F32.0
aF58.0
asg7
(lp795
F27.78
aF58.0
asg9
(lp796
F0.0
aF58.0
asg11
(lp797
F26.0
aF58.0
asg13
(lp798
F30.0
aF58.0
asg15
(lp799
F24.0
aF58.0
asg17
(lp800
F28.0
aF58.0
asg19
(lp801
F32.0
aF58.0
asg21
(lp802
F32.0
aF58.0
assS'family_089'
p803
(dp804
g3
(lp805
F20.0
aF32.0
asg5
(lp806
F20.0
aF32.0
asg7
(lp807
F8.44
aF32.0
asg9
(lp808
F0.0
aF32.0
asg11
(lp809
F4.0
aF32.0
asg13
(lp810
F0.0
aF32.0
asg15
(lp811
F14.0
aF32.0
asg17
(lp812
F4.0
aF32.0
asg19
(lp813
F20.0
aF32.0
asg21
(lp814
F20.0
aF32.0
assS'family_088'
p815
(dp816
g3
(lp817
F10.0
aF20.0
asg5
(lp818
F10.0
aF20.0
asg7
(lp819
F5.14
aF20.0
asg9
(lp820
F0.0
aF20.0
asg11
(lp821
F8.0
aF20.0
asg13
(lp822
F0.0
aF20.0
asg15
(lp823
F10.0
aF20.0
asg17
(lp824
F6.0
aF20.0
asg19
(lp825
F10.0
aF20.0
asg21
(lp826
F10.0
aF20.0
assS'family_009'
p827
(dp828
g3
(lp829
F8.0
aF24.0
asg5
(lp830
F8.0
aF24.0
asg7
(lp831
F2.88
aF24.0
asg9
(lp832
F0.0
aF24.0
asg11
(lp833
F2.0
aF24.0
asg13
(lp834
F4.0
aF24.0
asg15
(lp835
F2.0
aF24.0
asg17
(lp836
F2.0
aF24.0
asg19
(lp837
F8.0
aF24.0
asg21
(lp838
F8.0
aF24.0
assS'family_008'
p839
(dp840
g3
(lp841
F8.0
aF20.0
asg5
(lp842
F8.0
aF20.0
asg7
(lp843
F0.34
aF20.0
asg9
(lp844
F0.0
aF20.0
asg11
(lp845
F0.0
aF20.0
asg13
(lp846
F0.0
aF20.0
asg15
(lp847
F4.0
aF20.0
asg17
(lp848
F0.0
aF20.0
asg19
(lp849
F8.0
aF20.0
asg21
(lp850
F8.0
aF20.0
assS'family_007'
p851
(dp852
g3
(lp853
F4.0
aF24.0
asg5
(lp854
F4.0
aF24.0
asg7
(lp855
F0.0
aF24.0
asg9
(lp856
F0.0
aF24.0
asg11
(lp857
F0.0
aF24.0
asg13
(lp858
F0.0
aF24.0
asg15
(lp859
F2.0
aF24.0
asg17
(lp860
F0.0
aF24.0
asg19
(lp861
F4.0
aF24.0
asg21
(lp862
F4.0
aF24.0
assS'family_006'
p863
(dp864
g3
(lp865
F14.0
aF28.0
asg5
(lp866
F14.0
aF28.0
asg7
(lp867
F3.52
aF28.0
asg9
(lp868
F0.0
aF28.0
asg11
(lp869
F4.0
aF28.0
asg13
(lp870
F4.0
aF28.0
asg15
(lp871
F12.0
aF28.0
asg17
(lp872
F0.0
aF28.0
asg19
(lp873
F14.0
aF28.0
asg21
(lp874
F14.0
aF28.0
assS'family_005'
p875
(dp876
g3
(lp877
F20.0
aF54.0
asg5
(lp878
F20.0
aF54.0
asg7
(lp879
F20.42
aF54.0
asg9
(lp880
F0.0
aF54.0
asg11
(lp881
F16.0
aF54.0
asg13
(lp882
F18.0
aF54.0
asg15
(lp883
F20.0
aF54.0
asg17
(lp884
F18.0
aF54.0
asg19
(lp885
F20.0
aF54.0
asg21
(lp886
F20.0
aF54.0
assS'family_004'
p887
(dp888
g3
(lp889
F6.0
aF28.0
asg5
(lp890
F6.0
aF28.0
asg7
(lp891
F5.04
aF28.0
asg9
(lp892
F0.0
aF28.0
asg11
(lp893
F4.0
aF28.0
asg13
(lp894
F6.0
aF28.0
asg15
(lp895
F4.0
aF28.0
asg17
(lp896
F4.0
aF28.0
asg19
(lp897
F6.0
aF28.0
asg21
(lp898
F6.0
aF28.0
assS'family_003'
p899
(dp900
g3
(lp901
F14.0
aF44.0
asg5
(lp902
F14.0
aF44.0
asg7
(lp903
F12.08
aF44.0
asg9
(lp904
F0.0
aF44.0
asg11
(lp905
F8.0
aF44.0
asg13
(lp906
F4.0
aF44.0
asg15
(lp907
F14.0
aF44.0
asg17
(lp908
F6.0
aF44.0
asg19
(lp909
F14.0
aF44.0
asg21
(lp910
F14.0
aF44.0
assS'family_002'
p911
(dp912
g3
(lp913
F6.0
aF22.0
asg5
(lp914
F6.0
aF22.0
asg7
(lp915
F5.0
aF22.0
asg9
(lp916
F0.0
aF22.0
asg11
(lp917
F8.0
aF22.0
asg13
(lp918
F8.0
aF22.0
asg15
(lp919
F4.0
aF22.0
asg17
(lp920
F6.0
aF22.0
asg19
(lp921
F6.0
aF22.0
asg21
(lp922
F6.0
aF22.0
assS'family_001'
p923
(dp924
g3
(lp925
F16.0
aF70.0
asg5
(lp926
F16.0
aF70.0
asg7
(lp927
F6.26
aF70.0
asg9
(lp928
F0.0
aF70.0
asg11
(lp929
F4.0
aF70.0
asg13
(lp930
F8.0
aF70.0
asg15
(lp931
F10.0
aF70.0
asg17
(lp932
F10.0
aF70.0
asg19
(lp933
F16.0
aF70.0
asg21
(lp934
F16.0
aF70.0
assS'family_078'
p935
(dp936
g3
(lp937
F10.0
aF20.0
asg5
(lp938
F10.0
aF20.0
asg7
(lp939
F0.0
aF20.0
asg9
(lp940
F0.0
aF20.0
asg11
(lp941
F0.0
aF20.0
asg13
(lp942
F0.0
aF20.0
asg15
(lp943
F6.0
aF20.0
asg17
(lp944
F0.0
aF20.0
asg19
(lp945
F10.0
aF20.0
asg21
(lp946
F10.0
aF20.0
assS'family_079'
p947
(dp948
g3
(lp949
F44.0
aF124.0
asg5
(lp950
F44.0
aF124.0
asg7
(lp951
F47.6
aF124.0
asg9
(lp952
F0.0
aF124.0
asg11
(lp953
F52.0
aF124.0
asg13
(lp954
F48.0
aF124.0
asg15
(lp955
F50.0
aF124.0
asg17
(lp956
F40.0
aF124.0
asg19
(lp957
F44.0
aF124.0
asg21
(lp958
F44.0
aF124.0
assS'family_072'
p959
(dp960
g3
(lp961
F0.0
aF6.0
asg5
(lp962
F0.0
aF6.0
asg7
(lp963
F0.34
aF6.0
asg9
(lp964
F0.0
aF6.0
asg11
(lp965
F0.0
aF6.0
asg13
(lp966
F2.0
aF6.0
asg15
(lp967
F0.0
aF6.0
asg17
(lp968
F0.0
aF6.0
asg19
(lp969
F0.0
aF6.0
asg21
(lp970
F0.0
aF6.0
assS'family_073'
p971
(dp972
g3
(lp973
F2.0
aF16.0
asg5
(lp974
F2.0
aF16.0
asg7
(lp975
F2.58
aF16.0
asg9
(lp976
F0.0
aF16.0
asg11
(lp977
F2.0
aF16.0
asg13
(lp978
F4.0
aF16.0
asg15
(lp979
F2.0
aF16.0
asg17
(lp980
F2.0
aF16.0
asg19
(lp981
F2.0
aF16.0
asg21
(lp982
F2.0
aF16.0
assS'family_070'
p983
(dp984
g3
(lp985
F6.0
aF14.0
asg5
(lp986
F6.0
aF14.0
asg7
(lp987
F5.86
aF14.0
asg9
(lp988
F0.0
aF14.0
asg11
(lp989
F8.0
aF14.0
asg13
(lp990
F8.0
aF14.0
asg15
(lp991
F4.0
aF14.0
asg17
(lp992
F4.0
aF14.0
asg19
(lp993
F6.0
aF14.0
asg21
(lp994
F6.0
aF14.0
assS'family_071'
p995
(dp996
g3
(lp997
F4.0
aF16.0
asg5
(lp998
F4.0
aF16.0
asg7
(lp999
F2.92
aF16.0
asg9
(lp1000
F0.0
aF16.0
asg11
(lp1001
F2.0
aF16.0
asg13
(lp1002
F4.0
aF16.0
asg15
(lp1003
F4.0
aF16.0
asg17
(lp1004
F2.0
aF16.0
asg19
(lp1005
F4.0
aF16.0
asg21
(lp1006
F4.0
aF16.0
assS'family_076'
p1007
(dp1008
g3
(lp1009
F6.0
aF28.0
asg5
(lp1010
F6.0
aF28.0
asg7
(lp1011
F4.32
aF28.0
asg9
(lp1012
F0.0
aF28.0
asg11
(lp1013
F4.0
aF28.0
asg13
(lp1014
F6.0
aF28.0
asg15
(lp1015
F8.0
aF28.0
asg17
(lp1016
F4.0
aF28.0
asg19
(lp1017
F6.0
aF28.0
asg21
(lp1018
F6.0
aF28.0
assS'family_077'
p1019
(dp1020
g3
(lp1021
F6.0
aF14.0
asg5
(lp1022
F6.0
aF14.0
asg7
(lp1023
F0.0
aF14.0
asg9
(lp1024
F0.0
aF14.0
asg11
(lp1025
F0.0
aF14.0
asg13
(lp1026
F0.0
aF14.0
asg15
(lp1027
F6.0
aF14.0
asg17
(lp1028
F0.0
aF14.0
asg19
(lp1029
F6.0
aF14.0
asg21
(lp1030
F6.0
aF14.0
assS'family_074'
p1031
(dp1032
g3
(lp1033
F0.0
aF4.0
asg5
(lp1034
F0.0
aF4.0
asg7
(lp1035
F0.76
aF4.0
asg9
(lp1036
F0.0
aF4.0
asg11
(lp1037
F2.0
aF4.0
asg13
(lp1038
F0.0
aF4.0
asg15
(lp1039
F0.0
aF4.0
asg17
(lp1040
F0.0
aF4.0
asg19
(lp1041
F0.0
aF4.0
asg21
(lp1042
F0.0
aF4.0
assS'family_075'
p1043
(dp1044
g3
(lp1045
F6.0
aF20.0
asg5
(lp1046
F6.0
aF20.0
asg7
(lp1047
F0.0
aF20.0
asg9
(lp1048
F0.0
aF20.0
asg11
(lp1049
F0.0
aF20.0
asg13
(lp1050
F0.0
aF20.0
asg15
(lp1051
F6.0
aF20.0
asg17
(lp1052
F0.0
aF20.0
asg19
(lp1053
F6.0
aF20.0
asg21
(lp1054
F6.0
aF20.0
assS'family_069'
p1055
(dp1056
g3
(lp1057
F6.0
aF24.0
asg5
(lp1058
F6.0
aF24.0
asg7
(lp1059
F6.9
aF24.0
asg9
(lp1060
F0.0
aF24.0
asg11
(lp1061
F6.0
aF24.0
asg13
(lp1062
F10.0
aF24.0
asg15
(lp1063
F2.0
aF24.0
asg17
(lp1064
F8.0
aF24.0
asg19
(lp1065
F6.0
aF24.0
asg21
(lp1066
F6.0
aF24.0
assS'family_068'
p1067
(dp1068
g3
(lp1069
F44.0
aF110.0
asg5
(lp1070
F44.0
aF110.0
asg7
(lp1071
F49.48
aF110.0
asg9
(lp1072
F0.0
aF110.0
asg11
(lp1073
F42.0
aF110.0
asg13
(lp1074
F38.0
aF110.0
asg15
(lp1075
F40.0
aF110.0
asg17
(lp1076
F44.0
aF110.0
asg19
(lp1077
F44.0
aF110.0
asg21
(lp1078
F44.0
aF110.0
assS'family_100'
p1079
(dp1080
g3
(lp1081
F42.0
aF72.0
asg5
(lp1082
F42.0
aF72.0
asg7
(lp1083
F34.4
aF72.0
asg9
(lp1084
F0.0
aF72.0
asg11
(lp1085
F36.0
aF72.0
asg13
(lp1086
F40.0
aF72.0
asg15
(lp1087
F34.0
aF72.0
asg17
(lp1088
F36.0
aF72.0
asg19
(lp1089
F42.0
aF72.0
asg21
(lp1090
F42.0
aF72.0
assS'family_061'
p1091
(dp1092
g3
(lp1093
F10.0
aF34.0
asg5
(lp1094
F10.0
aF34.0
asg7
(lp1095
F9.84
aF34.0
asg9
(lp1096
F0.0
aF34.0
asg11
(lp1097
F8.0
aF34.0
asg13
(lp1098
F12.0
aF34.0
asg15
(lp1099
F10.0
aF34.0
asg17
(lp1100
F8.0
aF34.0
asg19
(lp1101
F10.0
aF34.0
asg21
(lp1102
F10.0
aF34.0
assS'family_060'
p1103
(dp1104
g3
(lp1105
F126.0
aF206.0
asg5
(lp1106
F126.0
aF206.0
asg7
(lp1107
F126.58
aF206.0
asg9
(lp1108
F0.0
aF206.0
asg11
(lp1109
F116.0
aF206.0
asg13
(lp1110
F114.0
aF206.0
asg15
(lp1111
F116.0
aF206.0
asg17
(lp1112
F116.0
aF206.0
asg19
(lp1113
F126.0
aF206.0
asg21
(lp1114
F126.0
aF206.0
assS'family_063'
p1115
(dp1116
g3
(lp1117
F6.0
aF22.0
asg5
(lp1118
F6.0
aF22.0
asg7
(lp1119
F0.0
aF22.0
asg9
(lp1120
F0.0
aF22.0
asg11
(lp1121
F0.0
aF22.0
asg13
(lp1122
F0.0
aF22.0
asg15
(lp1123
F8.0
aF22.0
asg17
(lp1124
F0.0
aF22.0
asg19
(lp1125
F6.0
aF22.0
asg21
(lp1126
F6.0
aF22.0
assS'family_062'
p1127
(dp1128
g3
(lp1129
F0.0
aF14.0
asg5
(lp1130
F0.0
aF14.0
asg7
(lp1131
F1.82
aF14.0
asg9
(lp1132
F0.0
aF14.0
asg11
(lp1133
F2.0
aF14.0
asg13
(lp1134
F2.0
aF14.0
asg15
(lp1135
F0.0
aF14.0
asg17
(lp1136
F2.0
aF14.0
asg19
(lp1137
F0.0
aF14.0
asg21
(lp1138
F0.0
aF14.0
assS'family_065'
p1139
(dp1140
g3
(lp1141
F6.0
aF34.0
asg5
(lp1142
F6.0
aF34.0
asg7
(lp1143
F3.62
aF34.0
asg9
(lp1144
F0.0
aF34.0
asg11
(lp1145
F6.0
aF34.0
asg13
(lp1146
F4.0
aF34.0
asg15
(lp1147
F4.0
aF34.0
asg17
(lp1148
F4.0
aF34.0
asg19
(lp1149
F6.0
aF34.0
asg21
(lp1150
F6.0
aF34.0
assS'family_064'
p1151
(dp1152
g3
(lp1153
F0.0
aF16.0
asg5
(lp1154
F0.0
aF16.0
asg7
(lp1155
F1.3
aF16.0
asg9
(lp1156
F0.0
aF16.0
asg11
(lp1157
F2.0
aF16.0
asg13
(lp1158
F2.0
aF16.0
asg15
(lp1159
F0.0
aF16.0
asg17
(lp1160
F2.0
aF16.0
asg19
(lp1161
F0.0
aF16.0
asg21
(lp1162
F0.0
aF16.0
assS'family_067'
p1163
(dp1164
g3
(lp1165
F8.0
aF14.0
asg5
(lp1166
F8.0
aF14.0
asg7
(lp1167
F0.08
aF14.0
asg9
(lp1168
F0.0
aF14.0
asg11
(lp1169
F0.0
aF14.0
asg13
(lp1170
F0.0
aF14.0
asg15
(lp1171
F8.0
aF14.0
asg17
(lp1172
F0.0
aF14.0
asg19
(lp1173
F8.0
aF14.0
asg21
(lp1174
F8.0
aF14.0
assS'family_066'
p1175
(dp1176
g3
(lp1177
F22.0
aF38.0
asg5
(lp1178
F22.0
aF38.0
asg7
(lp1179
F5.96
aF38.0
asg9
(lp1180
F0.0
aF38.0
asg11
(lp1181
F8.0
aF38.0
asg13
(lp1182
F8.0
aF38.0
asg15
(lp1183
F20.0
aF38.0
asg17
(lp1184
F8.0
aF38.0
asg19
(lp1185
F22.0
aF38.0
asg21
(lp1186
F22.0
aF38.0
ass.